(ideluge.core.torrentmanager
TorrentManagerState
p1
(dp2
S'torrents'
p3
(lp4
(ideluge.core.torrentmanager
TorrentState
p5
(dp6
S'max_download_speed'
p7
F-1
sS'move_completed_path'
p8
S'/Users/katie/Downloads'
p9
sS'paused'
p10
I00
sS'max_upload_slots'
p11
I-1
sS'prioritize_first_last'
p12
I00
sS'max_connections'
p13
I-1
sS'compact'
p14
I00
sS'queue'
p15
I-1
sS'file_priorities'
p16
(lp17
I1
aI1
asS'filename'
p18
S'd7a2d302b238f2b1e041ebabee4de3eb2a8861e1'
p19
sS'max_upload_speed'
p20
F-1
sS'save_path'
p21
S'/Users/katie/Downloads'
p22
sS'time_added'
p23
F1475381034.2676549
sS'total_uploaded'
p24
L0L
sS'torrent_id'
p25
g19
sS'auto_managed'
p26
I01
sS'stop_at_ratio'
p27
I00
sS'move_completed'
p28
I00
sS'trackers'
p29
(lp30
(dp31
S'send_stats'
p32
I01
sS'fails'
p33
I0
sS'verified'
p34
I00
sS'url'
p35
S'udp://tracker.coppersurfer.tk:6969/announce'
p36
sS'fail_limit'
p37
I0
sS'complete_sent'
p38
I00
sS'source'
p39
I4
sS'start_sent'
p40
I00
sS'tier'
p41
I0
sS'updating'
p42
I00
sa(dp43
S'send_stats'
p44
I01
sS'fails'
p45
I0
sS'verified'
p46
I00
sS'url'
p47
S'udp://tracker.opentrackr.org:1337/announce'
p48
sS'fail_limit'
p49
I0
sS'complete_sent'
p50
I00
sS'source'
p51
I4
sS'start_sent'
p52
I00
sS'tier'
p53
I0
sS'updating'
p54
I00
sa(dp55
S'send_stats'
p56
I01
sS'fails'
p57
I0
sS'verified'
p58
I00
sS'url'
p59
S'udp://torrent.gresille.org:80/announce'
p60
sS'fail_limit'
p61
I0
sS'complete_sent'
p62
I00
sS'source'
p63
I4
sS'start_sent'
p64
I00
sS'tier'
p65
I0
sS'updating'
p66
I00
sa(dp67
S'send_stats'
p68
I01
sS'fails'
p69
I0
sS'verified'
p70
I00
sS'url'
p71
S'http://pow7.com/announce'
p72
sS'fail_limit'
p73
I0
sS'complete_sent'
p74
I00
sS'source'
p75
I4
sS'start_sent'
p76
I00
sS'tier'
p77
I0
sS'updating'
p78
I00
sa(dp79
S'send_stats'
p80
I01
sS'fails'
p81
I0
sS'verified'
p82
I00
sS'url'
p83
S'http://atrack.pow7.com/announce'
p84
sS'fail_limit'
p85
I0
sS'complete_sent'
p86
I00
sS'source'
p87
I4
sS'start_sent'
p88
I00
sS'tier'
p89
I0
sS'updating'
p90
I00
sa(dp91
S'send_stats'
p92
I01
sS'fails'
p93
I0
sS'verified'
p94
I00
sS'url'
p95
S'http://retracker.krs-ix.ru/announce'
p96
sS'fail_limit'
p97
I0
sS'complete_sent'
p98
I00
sS'source'
p99
I4
sS'start_sent'
p100
I00
sS'tier'
p101
I0
sS'updating'
p102
I00
sasS'magnet'
p103
S'magnet:?xt=urn:btih:d7a2d302b238f2b1e041ebabee4de3eb2a8861e1&dn=Xfer+Records+-+Cthulhu+1.11&xl=14450156&dl=14450156&tr=udp://tracker.coppersurfer.tk:6969/announce&tr=udp://tracker.opentrackr.org:1337/announce&tr=udp://torrent.gresille.org:80/announce&tr=http://pow7.com/announce&tr=http://atrack.pow7.com/announce&tr=http://retracker.krs-ix.ru/announce'
p104
sS'remove_at_ratio'
p105
I00
sS'stop_ratio'
p106
F0.5
sS'is_finished'
p107
I01
sbasb.